; ModuleID = 'bench/linux/original/seq_lock.ll'
source_filename = "bench/linux/original/seq_lock.ll"
target datalayout = "e-m:e-p270:32:32-p271:32:32-p272:64:64-i64:64-i128:128-f80:128-n8:16:32:64-S128"
target triple = "x86_64-unknown-linux-gnu"

module asm ".section \22.export_symbol\22,\22a\22 ; __export_symbol_snd_use_lock_sync_helper: ; .asciz \22\22 ; .asciz \22\22 ; .balign 8 ; .quad snd_use_lock_sync_helper ; .previous"

@.str = private unnamed_addr constant [56 x i8] c"\014ALSA: seq_lock: lock trouble [counter = %d] in %s:%d\0A\00", align 1
@.str.1 = private unnamed_addr constant [46 x i8] c"\014ALSA: seq_lock: waiting [%d left] in %s:%d\0A\00", align 1
@__UNIQUE_ID___addressable_snd_use_lock_sync_helper313 = internal global ptr @snd_use_lock_sync_helper, section ".discard.addressable", align 8
@llvm.compiler.used = appending global [1 x ptr] [ptr @__UNIQUE_ID___addressable_snd_use_lock_sync_helper313], section "llvm.metadata"

; Function Attrs: fn_ret_thunk_extern nounwind null_pointer_is_valid
define dso_local void @snd_use_lock_sync_helper(ptr noundef %0, ptr noundef %1, i32 noundef %2) #0 align 16 {
  %4 = load volatile i32, ptr %0, align 4
  %5 = icmp slt i32 %4, 0
  %6 = load volatile i32, ptr %0, align 4
  br i1 %5, label %9, label %7

7:                                                ; preds = %3
  %8 = icmp sgt i32 %6, 0
  br i1 %8, label %.preheader, label %.loopexit

9:                                                ; preds = %3
  %10 = tail call i32 (ptr, ...) @_printk(ptr noundef nonnull @.str, i32 noundef %6, ptr noundef %1, i32 noundef %2) #3
  br label %.loopexit

.preheader:                                       ; preds = %7, %17
  %11 = phi i32 [ %12, %17 ], [ 5000, %7 ]
  %12 = add i32 %11, -1
  %13 = icmp eq i32 %11, 0
  br i1 %13, label %14, label %17

14:                                               ; preds = %.preheader
  %15 = load volatile i32, ptr %0, align 4
  %16 = tail call i32 (ptr, ...) @_printk(ptr noundef nonnull @.str.1, i32 noundef %15, ptr noundef %1, i32 noundef %2) #3
  br label %17

17:                                               ; preds = %14, %.preheader
  %18 = tail call i64 @schedule_timeout_uninterruptible(i64 noundef 1) #4
  %19 = load volatile i32, ptr %0, align 4
  %20 = icmp sgt i32 %19, 0
  br i1 %20, label %.preheader, label %.loopexit, !llvm.loop !5

.loopexit:                                        ; preds = %17, %9, %7
  ret void
}

; Function Attrs: cold null_pointer_is_valid
declare dso_local i32 @_printk(ptr noundef, ...) local_unnamed_addr #1

; Function Attrs: null_pointer_is_valid
declare dso_local i64 @schedule_timeout_uninterruptible(i64 noundef) local_unnamed_addr #2


!llvm.module.flags = !{!0, !1, !2, !3, !4}

!0 = !{i32 1, !"wchar_size", i32 2}
!1 = !{i32 8, !"cf-protection-branch", i32 1}
!2 = !{i32 4, !"function_return_thunk_extern", i32 1}
!3 = !{i32 4, !"indirect_branch_cs_prefix", i32 1}
!4 = !{i32 4, !"SkipRaxSetup", i32 1}
!5 = distinct !{!5, !6, !7}
!6 = !{!"llvm.loop.mustprogress"}
!7 = !{!"llvm.loop.unroll.disable"}
